target datalayout = "e-m:e-p270:32:32-p271:32:32-p272:64:64-i64:64-i128:128-f80:128-n8:16:32:64-S128"
target triple = "x86_64-pc-linux-gnu"

; Function Attrs: nounwind sspstrong uwtable
define internal i64 @rb_hash_each_pair(i64 noundef %0) #0 {
  %2 = alloca i64, align 8
  %3 = alloca i64, align 8
  %4 = alloca i64, align 8
  store i64 %0, ptr %3, align 8, !tbaa !7
  br label %5

5:                                                ; preds = %1
  %6 = call i32 @rb_block_given_p()
  %7 = icmp ne i32 %6, 0
  br i1 %7, label %14, label %8

8:                                                ; preds = %5
  %9 = load i64, ptr %3, align 8, !tbaa !7
  %10 = call i64 @rb_frame_this_func()
  %11 = call i64 @rb_id2sym(i64 noundef %10)
  store i64 %11, ptr %4, align 8, !tbaa !7
  %12 = load i64, ptr %4, align 8, !tbaa !7
  %13 = call i64 @rb_enumeratorize_with_size(i64 noundef %9, i64 noundef %12, i32 noundef 0, ptr noundef null, ptr noundef @hash_enum_size)
  store i64 %13, ptr %2, align 8
  br label %24

14:                                               ; preds = %5
  br label %15

15:                                               ; preds = %14
  %16 = call i32 @rb_block_pair_yield_optimizable()
  %17 = icmp ne i32 %16, 0
  br i1 %17, label %18, label %20

18:                                               ; preds = %15
  %19 = load i64, ptr %3, align 8, !tbaa !7
  call void @rb_hash_foreach(i64 noundef %19, ptr noundef @each_pair_i_fast, i64 noundef 0)
  br label %22

20:                                               ; preds = %15
  %21 = load i64, ptr %3, align 8, !tbaa !7
  call void @rb_hash_foreach(i64 noundef %21, ptr noundef @each_pair_i, i64 noundef 0)
  br label %22

22:                                               ; preds = %20, %18
  %23 = load i64, ptr %3, align 8, !tbaa !7
  store i64 %23, ptr %2, align 8
  br label %24

24:                                               ; preds = %22, %8
  %25 = load i64, ptr %2, align 8
  ret i64 %25
}