; Function Attrs: nounwind sspstrong uwtable
define internal i64 @rb_hash_each_pair(i64 noundef %0) #0 {
  %2 = tail call i32 @rb_block_given_p() #28
  %.not = icmp eq i32 %2, 0
  br i1 %.not, label %3, label %7

3:                                                ; preds = %1
  %4 = tail call i64 @rb_frame_this_func() #28
  %5 = tail call i64 @rb_id2sym(i64 noundef %4) #28
  %6 = tail call i64 @rb_enumeratorize_with_size(i64 noundef %0, i64 noundef %5, i32 noundef 0, ptr noundef null, ptr noundef nonnull @hash_enum_size) #28
  br label %11

7:                                                ; preds = %1
  %8 = tail call i32 @rb_block_pair_yield_optimizable() #28
  %.not6 = icmp eq i32 %8, 0
  br i1 %.not6, label %10, label %9

9:                                                ; preds = %7
  tail call void @rb_hash_foreach(i64 noundef %0, ptr noundef @each_pair_i_fast, i64 noundef 0)
  br label %11

10:                                               ; preds = %7
  tail call void @rb_hash_foreach(i64 noundef %0, ptr noundef @each_pair_i, i64 noundef 0)
  br label %11

11:                                               ; preds = %9, %10, %3
  %.0 = phi i64 [ %6, %3 ], [ %0, %10 ], [ %0, %9 ]
  ret i64 %.0
}